ccopy_reg
_reconstructor
p0
(cnltk.classify.decisiontree
DecisionTreeClassifier
p1
c__builtin__
object
p2
Ntp3
Rp4
(dp5
S'_fname'
p6
S'containsword(cancel)'
p7
sS'_label'
p8
S'not s'
p9
sS'_decisions'
p10
(dp11
I00
g0
(g1
g2
Ntp12
Rp13
(dp14
g6
S'containsword(suspension)'
p15
sg8
g9
sg10
(dp16
I00
g0
(g1
g2
Ntp17
Rp18
(dp19
g6
Nsg8
S'not s'
p20
sg10
NsS'_default'
p21
NsbsI01
g0
(g1
g2
Ntp22
Rp23
(dp24
g6
Nsg8
S's'
p25
sg10
Nsg21
Nsbssg21
NsbsI01
g0
(g1
g2
Ntp26
Rp27
(dp28
g6
Nsg8
g25
sg10
Nsg21
Nsbssg21
Nsb.