ccopy_reg
_reconstructor
p0
(cnltk.classify.decisiontree
DecisionTreeClassifier
p1
c__builtin__
object
p2
Ntp3
Rp4
(dp5
S'_fname'
p6
NsS'_label'
p7
S'not x'
p8
sS'_decisions'
p9
NsS'_default'
p10
Nsb.