ccopy_reg
_reconstructor
p0
(cnltk.classify.decisiontree
DecisionTreeClassifier
p1
c__builtin__
object
p2
Ntp3
Rp4
(dp5
S'_fname'
p6
S'containsword(subpoena)'
p7
sS'_label'
p8
S'not l'
p9
sS'_decisions'
p10
(dp11
I00
g0
(g1
g2
Ntp12
Rp13
(dp14
g6
S'containsword(judicial)'
p15
sg8
g9
sg10
(dp16
I00
g0
(g1
g2
Ntp17
Rp18
(dp19
g6
S'containsword(investigation)'
p20
sg8
g9
sg10
(dp21
I00
g0
(g1
g2
Ntp22
Rp23
(dp24
g6
S'containsword(duties)'
p25
sg8
g9
sg10
(dp26
I00
g0
(g1
g2
Ntp27
Rp28
(dp29
g6
S'containsword(pursue)'
p30
sg8
g9
sg10
(dp31
I00
g0
(g1
g2
Ntp32
Rp33
(dp34
g6
S'containsword(ourselves)'
p35
sg8
g9
sg10
(dp36
I00
g0
(g1
g2
Ntp37
Rp38
(dp39
g6
S'containsword(facilities)'
p40
sg8
g9
sg10
(dp41
I00
g0
(g1
g2
Ntp42
Rp43
(dp44
g6
S'containsword(lieu)'
p45
sg8
g9
sg10
(dp46
I00
g0
(g1
g2
Ntp47
Rp48
(dp49
g6
Nsg8
S'not l'
p50
sg10
NsS'_default'
p51
NsbsI01
g0
(g1
g2
Ntp52
Rp53
(dp54
g6
Nsg8
S'l'
p55
sg10
Nsg51
Nsbssg51
NsbsI01
g0
(g1
g2
Ntp56
Rp57
(dp58
g6
Nsg8
g55
sg10
Nsg51
Nsbssg51
NsbsI01
g0
(g1
g2
Ntp59
Rp60
(dp61
g6
Nsg8
g55
sg10
Nsg51
Nsbssg51
NsbsI01
g0
(g1
g2
Ntp62
Rp63
(dp64
g6
Nsg8
g55
sg10
Nsg51
Nsbssg51
NsbsI01
g0
(g1
g2
Ntp65
Rp66
(dp67
g6
Nsg8
g55
sg10
Nsg51
Nsbssg51
NsbsI01
g0
(g1
g2
Ntp68
Rp69
(dp70
g6
Nsg8
g55
sg10
Nsg51
Nsbssg51
NsbsI01
g0
(g1
g2
Ntp71
Rp72
(dp73
g6
Nsg8
g55
sg10
Nsg51
Nsbssg51
NsbsI01
g0
(g1
g2
Ntp74
Rp75
(dp76
g6
Nsg8
g55
sg10
Nsg51
Nsbssg51
Nsb.