ccopy_reg
_reconstructor
p0
(cnltk.classify.decisiontree
DecisionTreeClassifier
p1
c__builtin__
object
p2
Ntp3
Rp4
(dp5
S'_fname'
p6
S'containsword(ip)'
p7
sS'_label'
p8
S'not o'
p9
sS'_decisions'
p10
(dp11
I00
g0
(g1
g2
Ntp12
Rp13
(dp14
g6
S"containsword('re)"
p15
sg8
g9
sg10
(dp16
I00
g0
(g1
g2
Ntp17
Rp18
(dp19
g6
S'containsword(show)'
p20
sg8
g9
sg10
(dp21
I00
g0
(g1
g2
Ntp22
Rp23
(dp24
g6
S'containsword(expire)'
p25
sg8
g9
sg10
(dp26
I00
g0
(g1
g2
Ntp27
Rp28
(dp29
g6
S'containsword(legislation)'
p30
sg8
g9
sg10
(dp31
I00
g0
(g1
g2
Ntp32
Rp33
(dp34
g6
S'containsword(seen)'
p35
sg8
g9
sg10
(dp36
I00
g0
(g1
g2
Ntp37
Rp38
(dp39
g6
S'containsword(trusted)'
p40
sg8
g9
sg10
(dp41
I00
g0
(g1
g2
Ntp42
Rp43
(dp44
g6
S'containsword(medical)'
p45
sg8
g9
sg10
(dp46
I00
g0
(g1
g2
Ntp47
Rp48
(dp49
g6
S'containsword(detection)'
p50
sg8
g9
sg10
(dp51
I00
g0
(g1
g2
Ntp52
Rp53
(dp54
g6
S'containsword(territories)'
p55
sg8
g9
sg10
(dp56
I00
g0
(g1
g2
Ntp57
Rp58
(dp59
g6
S'containsword(user-generated)'
p60
sg8
g9
sg10
(dp61
I00
g0
(g1
g2
Ntp62
Rp63
(dp64
g6
S'containsword(movements)'
p65
sg8
g9
sg10
(dp66
I00
g0
(g1
g2
Ntp67
Rp68
(dp69
g6
S'containsword(operators)'
p70
sg8
g9
sg10
(dp71
I00
g0
(g1
g2
Ntp72
Rp73
(dp74
g6
S'containsword(model)'
p75
sg8
g9
sg10
(dp76
I00
g0
(g1
g2
Ntp77
Rp78
(dp79
g6
S'containsword(gathering)'
p80
sg8
g9
sg10
(dp81
I00
g0
(g1
g2
Ntp82
Rp83
(dp84
g6
S'containsword(club)'
p85
sg8
g9
sg10
(dp86
I00
g0
(g1
g2
Ntp87
Rp88
(dp89
g6
S'containsword(consider)'
p90
sg8
g9
sg10
(dp91
I00
g0
(g1
g2
Ntp92
Rp93
(dp94
g6
S'containsword(supply)'
p95
sg8
g9
sg10
(dp96
I00
g0
(g1
g2
Ntp97
Rp98
(dp99
g6
S'containsword(outlined)'
p100
sg8
g9
sg10
(dp101
I00
g0
(g1
g2
Ntp102
Rp103
(dp104
g6
S'containsword(statistics)'
p105
sg8
g9
sg10
(dp106
I00
g0
(g1
g2
Ntp107
Rp108
(dp109
g6
S'containsword(knowledge)'
p110
sg8
g9
sg10
(dp111
I00
g0
(g1
g2
Ntp112
Rp113
(dp114
g6
S'containsword(occasion)'
p115
sg8
g9
sg10
(dp116
I00
g0
(g1
g2
Ntp117
Rp118
(dp119
g6
S'containsword(spent)'
p120
sg8
g9
sg10
(dp121
I00
g0
(g1
g2
Ntp122
Rp123
(dp124
g6
S'containsword(residence)'
p125
sg8
g9
sg10
(dp126
I00
g0
(g1
g2
Ntp127
Rp128
(dp129
g6
S'containsword(supplement)'
p130
sg8
g9
sg10
(dp131
I00
g0
(g1
g2
Ntp132
Rp133
(dp134
g6
S'containsword(contractually)'
p135
sg8
g9
sg10
(dp136
I00
g0
(g1
g2
Ntp137
Rp138
(dp139
g6
S'containsword(demographics)'
p140
sg8
g9
sg10
(dp141
I00
g0
(g1
g2
Ntp142
Rp143
(dp144
g6
S'containsword(chooses)'
p145
sg8
g9
sg10
(dp146
I00
g0
(g1
g2
Ntp147
Rp148
(dp149
g6
S'containsword(consents)'
p150
sg8
g9
sg10
(dp151
I00
g0
(g1
g2
Ntp152
Rp153
(dp154
g6
S'containsword(indefinitely)'
p155
sg8
g9
sg10
(dp156
I00
g0
(g1
g2
Ntp157
Rp158
(dp159
g6
S'containsword(majority)'
p160
sg8
g9
sg10
(dp161
I00
g0
(g1
g2
Ntp162
Rp163
(dp164
g6
Nsg8
S'not o'
p165
sg10
NsS'_default'
p166
NsbsI01
g0
(g1
g2
Ntp167
Rp168
(dp169
g6
Nsg8
S'o'
p170
sg10
Nsg166
Nsbssg166
NsbsI01
g0
(g1
g2
Ntp171
Rp172
(dp173
g6
Nsg8
g170
sg10
Nsg166
Nsbssg166
NsbsI01
g0
(g1
g2
Ntp174
Rp175
(dp176
g6
Nsg8
g170
sg10
Nsg166
Nsbssg166
NsbsI01
g0
(g1
g2
Ntp177
Rp178
(dp179
g6
Nsg8
g170
sg10
Nsg166
Nsbssg166
NsbsI01
g0
(g1
g2
Ntp180
Rp181
(dp182
g6
Nsg8
g170
sg10
Nsg166
Nsbssg166
NsbsI01
g0
(g1
g2
Ntp183
Rp184
(dp185
g6
Nsg8
g170
sg10
Nsg166
Nsbssg166
NsbsI01
g0
(g1
g2
Ntp186
Rp187
(dp188
g6
Nsg8
g170
sg10
Nsg166
Nsbssg166
NsbsI01
g0
(g1
g2
Ntp189
Rp190
(dp191
g6
Nsg8
g170
sg10
Nsg166
Nsbssg166
NsbsI01
g0
(g1
g2
Ntp192
Rp193
(dp194
g6
Nsg8
g170
sg10
Nsg166
Nsbssg166
NsbsI01
g0
(g1
g2
Ntp195
Rp196
(dp197
g6
S'containsword(receive)'
p198
sg8
S'not o'
p199
sg10
(dp200
I00
g0
(g1
g2
Ntp201
Rp202
(dp203
g6
Nsg8
g170
sg10
Nsg166
NsbsI01
g0
(g1
g2
Ntp204
Rp205
(dp206
g6
Nsg8
g199
sg10
Nsg166
Nsbssg166
Nsbssg166
NsbsI01
g0
(g1
g2
Ntp207
Rp208
(dp209
g6
Nsg8
g170
sg10
Nsg166
Nsbssg166
NsbsI01
g0
(g1
g2
Ntp210
Rp211
(dp212
g6
Nsg8
g170
sg10
Nsg166
Nsbssg166
NsbsI01
g0
(g1
g2
Ntp213
Rp214
(dp215
g6
Nsg8
g170
sg10
Nsg166
Nsbssg166
NsbsI01
g0
(g1
g2
Ntp216
Rp217
(dp218
g6
Nsg8
g170
sg10
Nsg166
Nsbssg166
NsbsI01
g0
(g1
g2
Ntp219
Rp220
(dp221
g6
Nsg8
g170
sg10
Nsg166
Nsbssg166
NsbsI01
g0
(g1
g2
Ntp222
Rp223
(dp224
g6
S'containsword(members)'
p225
sg8
g170
sg10
(dp226
I00
g0
(g1
g2
Ntp227
Rp228
(dp229
g6
Nsg8
g170
sg10
Nsg166
NsbsI01
g0
(g1
g2
Ntp230
Rp231
(dp232
g6
Nsg8
S'not o'
p233
sg10
Nsg166
Nsbssg166
Nsbssg166
NsbsI01
g0
(g1
g2
Ntp234
Rp235
(dp236
g6
Nsg8
g170
sg10
Nsg166
Nsbssg166
NsbsI01
g0
(g1
g2
Ntp237
Rp238
(dp239
g6
Nsg8
g170
sg10
Nsg166
Nsbssg166
NsbsI01
g0
(g1
g2
Ntp240
Rp241
(dp242
g6
Nsg8
g170
sg10
Nsg166
Nsbssg166
NsbsI01
g0
(g1
g2
Ntp243
Rp244
(dp245
g6
Nsg8
g170
sg10
Nsg166
Nsbssg166
NsbsI01
g0
(g1
g2
Ntp246
Rp247
(dp248
g6
Nsg8
g170
sg10
Nsg166
Nsbssg166
NsbsI01
g0
(g1
g2
Ntp249
Rp250
(dp251
g6
Nsg8
g170
sg10
Nsg166
Nsbssg166
NsbsI01
g0
(g1
g2
Ntp252
Rp253
(dp254
g6
Nsg8
g170
sg10
Nsg166
Nsbssg166
NsbsI01
g0
(g1
g2
Ntp255
Rp256
(dp257
g6
Nsg8
g170
sg10
Nsg166
Nsbssg166
NsbsI01
g0
(g1
g2
Ntp258
Rp259
(dp260
g6
Nsg8
g170
sg10
Nsg166
Nsbssg166
NsbsI01
g0
(g1
g2
Ntp261
Rp262
(dp263
g6
Nsg8
g170
sg10
Nsg166
Nsbssg166
NsbsI01
g0
(g1
g2
Ntp264
Rp265
(dp266
g6
Nsg8
g170
sg10
Nsg166
Nsbssg166
NsbsI01
g0
(g1
g2
Ntp267
Rp268
(dp269
g6
Nsg8
g170
sg10
Nsg166
Nsbssg166
NsbsI01
g0
(g1
g2
Ntp270
Rp271
(dp272
g6
Nsg8
g170
sg10
Nsg166
Nsbssg166
NsbsI01
g0
(g1
g2
Ntp273
Rp274
(dp275
g6
Nsg8
g170
sg10
Nsg166
Nsbssg166
NsbsI01
g0
(g1
g2
Ntp276
Rp277
(dp278
g6
S'containsword(names)'
p279
sg8
S'not o'
p280
sg10
(dp281
I00
g0
(g1
g2
Ntp282
Rp283
(dp284
g6
S'containsword(zip)'
p285
sg8
g170
sg10
(dp286
I00
g0
(g1
g2
Ntp287
Rp288
(dp289
g6
S'containsword(and)'
p290
sg8
g170
sg10
(dp291
I00
g0
(g1
g2
Ntp292
Rp293
(dp294
g6
Nsg8
S'not o'
p295
sg10
Nsg166
NsbsI01
g0
(g1
g2
Ntp296
Rp297
(dp298
g6
S'containsword(tracking)'
p299
sg8
g170
sg10
(dp300
I00
g0
(g1
g2
Ntp301
Rp302
(dp303
g6
Nsg8
g170
sg10
Nsg166
NsbsI01
g0
(g1
g2
Ntp304
Rp305
(dp306
g6
Nsg8
S'not o'
p307
sg10
Nsg166
Nsbssg166
Nsbssg166
NsbsI01
g0
(g1
g2
Ntp308
Rp309
(dp310
g6
Nsg8
S'not o'
p311
sg10
Nsg166
Nsbssg166
NsbsI01
g0
(g1
g2
Ntp312
Rp313
(dp314
g6
Nsg8
S'not o'
p315
sg10
Nsg166
Nsbssg166
Nsbssg166
Nsb.