ccopy_reg
_reconstructor
p0
(cnltk.classify.decisiontree
DecisionTreeClassifier
p1
c__builtin__
object
p2
Ntp3
Rp4
(dp5
S'_fname'
p6
S'containsword(worldwide)'
p7
sS'_label'
p8
S'not c'
p9
sS'_decisions'
p10
(dp11
I00
g0
(g1
g2
Ntp12
Rp13
(dp14
g6
S'containsword(someone)'
p15
sg8
g9
sg10
(dp16
I00
g0
(g1
g2
Ntp17
Rp18
(dp19
g6
S'containsword(absolute)'
p20
sg8
g9
sg10
(dp21
I00
g0
(g1
g2
Ntp22
Rp23
(dp24
g6
S'containsword(claimed)'
p25
sg8
g9
sg10
(dp26
I00
g0
(g1
g2
Ntp27
Rp28
(dp29
g6
Nsg8
S'not c'
p30
sg10
NsS'_default'
p31
NsbsI01
g0
(g1
g2
Ntp32
Rp33
(dp34
g6
Nsg8
S'c'
p35
sg10
Nsg31
Nsbssg31
NsbsI01
g0
(g1
g2
Ntp36
Rp37
(dp38
g6
Nsg8
g35
sg10
Nsg31
Nsbssg31
NsbsI01
g0
(g1
g2
Ntp39
Rp40
(dp41
g6
Nsg8
g35
sg10
Nsg31
Nsbssg31
NsbsI01
g0
(g1
g2
Ntp42
Rp43
(dp44
g6
Nsg8
g35
sg10
Nsg31
Nsbssg31
Nsb.