ccopy_reg
_reconstructor
p0
(cnltk.classify.decisiontree
DecisionTreeClassifier
p1
c__builtin__
object
p2
Ntp3
Rp4
(dp5
S'_fname'
p6
S'containsword(simple)'
p7
sS'_label'
p8
S'not r'
p9
sS'_decisions'
p10
(dp11
I00
g0
(g1
g2
Ntp12
Rp13
(dp14
g6
S'containsword(spider)'
p15
sg8
g9
sg10
(dp16
I00
g0
(g1
g2
Ntp17
Rp18
(dp19
g6
S'containsword(breach)'
p20
sg8
g9
sg10
(dp21
I00
g0
(g1
g2
Ntp22
Rp23
(dp24
g6
S'containsword(art)'
p25
sg8
g9
sg10
(dp26
I00
g0
(g1
g2
Ntp27
Rp28
(dp29
g6
S'containsword(ongoing)'
p30
sg8
g9
sg10
(dp31
I00
g0
(g1
g2
Ntp32
Rp33
(dp34
g6
S'containsword(case)'
p35
sg8
g9
sg10
(dp36
I00
g0
(g1
g2
Ntp37
Rp38
(dp39
g6
S'containsword(residing)'
p40
sg8
g9
sg10
(dp41
I00
g0
(g1
g2
Ntp42
Rp43
(dp44
g6
S'containsword(exclusions)'
p45
sg8
g9
sg10
(dp46
I00
g0
(g1
g2
Ntp47
Rp48
(dp49
g6
S'containsword(suspect)'
p50
sg8
g9
sg10
(dp51
I00
g0
(g1
g2
Ntp52
Rp53
(dp54
g6
S'containsword(non-affiliated)'
p55
sg8
g9
sg10
(dp56
I00
g0
(g1
g2
Ntp57
Rp58
(dp59
g6
S'containsword(class)'
p60
sg8
g9
sg10
(dp61
I00
g0
(g1
g2
Ntp62
Rp63
(dp64
g6
S'containsword(prepared)'
p65
sg8
g9
sg10
(dp66
I00
g0
(g1
g2
Ntp67
Rp68
(dp69
g6
S'containsword(judge)'
p70
sg8
g9
sg10
(dp71
I00
g0
(g1
g2
Ntp72
Rp73
(dp74
g6
S'containsword(team)'
p75
sg8
g9
sg10
(dp76
I00
g0
(g1
g2
Ntp77
Rp78
(dp79
g6
S'containsword(reminders)'
p80
sg8
g9
sg10
(dp81
I00
g0
(g1
g2
Ntp82
Rp83
(dp84
g6
S'containsword(incorrect)'
p85
sg8
g9
sg10
(dp86
I00
g0
(g1
g2
Ntp87
Rp88
(dp89
g6
S'containsword(sports)'
p90
sg8
g9
sg10
(dp91
I00
g0
(g1
g2
Ntp92
Rp93
(dp94
g6
S'containsword(desire)'
p95
sg8
g9
sg10
(dp96
I00
g0
(g1
g2
Ntp97
Rp98
(dp99
g6
S'containsword(jointly)'
p100
sg8
g9
sg10
(dp101
I00
g0
(g1
g2
Ntp102
Rp103
(dp104
g6
S'containsword(contemplated)'
p105
sg8
g9
sg10
(dp106
I00
g0
(g1
g2
Ntp107
Rp108
(dp109
g6
S'containsword(verifiable)'
p110
sg8
g9
sg10
(dp111
I00
g0
(g1
g2
Ntp112
Rp113
(dp114
g6
S'containsword(mislead)'
p115
sg8
g9
sg10
(dp116
I00
g0
(g1
g2
Ntp117
Rp118
(dp119
g6
S'containsword(fee)'
p120
sg8
g9
sg10
(dp121
I00
g0
(g1
g2
Ntp122
Rp123
(dp124
g6
S'containsword(logged)'
p125
sg8
g9
sg10
(dp126
I00
g0
(g1
g2
Ntp127
Rp128
(dp129
g6
S'containsword(testimonials)'
p130
sg8
g9
sg10
(dp131
I00
g0
(g1
g2
Ntp132
Rp133
(dp134
g6
Nsg8
S'not r'
p135
sg10
NsS'_default'
p136
NsbsI01
g0
(g1
g2
Ntp137
Rp138
(dp139
g6
Nsg8
S'r'
p140
sg10
Nsg136
Nsbssg136
NsbsI01
g0
(g1
g2
Ntp141
Rp142
(dp143
g6
Nsg8
g140
sg10
Nsg136
Nsbssg136
NsbsI01
g0
(g1
g2
Ntp144
Rp145
(dp146
g6
Nsg8
g140
sg10
Nsg136
Nsbssg136
NsbsI01
g0
(g1
g2
Ntp147
Rp148
(dp149
g6
Nsg8
g140
sg10
Nsg136
Nsbssg136
NsbsI01
g0
(g1
g2
Ntp150
Rp151
(dp152
g6
Nsg8
g140
sg10
Nsg136
Nsbssg136
NsbsI01
g0
(g1
g2
Ntp153
Rp154
(dp155
g6
Nsg8
g140
sg10
Nsg136
Nsbssg136
NsbsI01
g0
(g1
g2
Ntp156
Rp157
(dp158
g6
Nsg8
g140
sg10
Nsg136
Nsbssg136
NsbsI01
g0
(g1
g2
Ntp159
Rp160
(dp161
g6
Nsg8
g140
sg10
Nsg136
Nsbssg136
NsbsI01
g0
(g1
g2
Ntp162
Rp163
(dp164
g6
Nsg8
g140
sg10
Nsg136
Nsbssg136
NsbsI01
g0
(g1
g2
Ntp165
Rp166
(dp167
g6
Nsg8
g140
sg10
Nsg136
Nsbssg136
NsbsI01
g0
(g1
g2
Ntp168
Rp169
(dp170
g6
Nsg8
g140
sg10
Nsg136
Nsbssg136
NsbsI01
g0
(g1
g2
Ntp171
Rp172
(dp173
g6
Nsg8
g140
sg10
Nsg136
Nsbssg136
NsbsI01
g0
(g1
g2
Ntp174
Rp175
(dp176
g6
Nsg8
g140
sg10
Nsg136
Nsbssg136
NsbsI01
g0
(g1
g2
Ntp177
Rp178
(dp179
g6
Nsg8
g140
sg10
Nsg136
Nsbssg136
NsbsI01
g0
(g1
g2
Ntp180
Rp181
(dp182
g6
Nsg8
g140
sg10
Nsg136
Nsbssg136
NsbsI01
g0
(g1
g2
Ntp183
Rp184
(dp185
g6
Nsg8
g140
sg10
Nsg136
Nsbssg136
NsbsI01
g0
(g1
g2
Ntp186
Rp187
(dp188
g6
Nsg8
g140
sg10
Nsg136
Nsbssg136
NsbsI01
g0
(g1
g2
Ntp189
Rp190
(dp191
g6
Nsg8
g140
sg10
Nsg136
Nsbssg136
NsbsI01
g0
(g1
g2
Ntp192
Rp193
(dp194
g6
Nsg8
g140
sg10
Nsg136
Nsbssg136
NsbsI01
g0
(g1
g2
Ntp195
Rp196
(dp197
g6
S'containsword(such)'
p198
sg8
g140
sg10
(dp199
I00
g0
(g1
g2
Ntp200
Rp201
(dp202
g6
Nsg8
g140
sg10
Nsg136
NsbsI01
g0
(g1
g2
Ntp203
Rp204
(dp205
g6
Nsg8
S'not r'
p206
sg10
Nsg136
Nsbssg136
Nsbssg136
NsbsI01
g0
(g1
g2
Ntp207
Rp208
(dp209
g6
Nsg8
g140
sg10
Nsg136
Nsbssg136
NsbsI01
g0
(g1
g2
Ntp210
Rp211
(dp212
g6
Nsg8
g140
sg10
Nsg136
Nsbssg136
NsbsI01
g0
(g1
g2
Ntp213
Rp214
(dp215
g6
S'containsword(preserve)'
p216
sg8
g140
sg10
(dp217
I00
g0
(g1
g2
Ntp218
Rp219
(dp220
g6
Nsg8
g140
sg10
Nsg136
NsbsI01
g0
(g1
g2
Ntp221
Rp222
(dp223
g6
Nsg8
S'not r'
p224
sg10
Nsg136
Nsbssg136
Nsbssg136
NsbsI01
g0
(g1
g2
Ntp225
Rp226
(dp227
g6
Nsg8
g140
sg10
Nsg136
Nsbssg136
NsbsI01
g0
(g1
g2
Ntp228
Rp229
(dp230
g6
Nsg8
g140
sg10
Nsg136
Nsbssg136
Nsb.