ccopy_reg
_reconstructor
p0
(cnltk.classify.decisiontree
DecisionTreeClassifier
p1
c__builtin__
object
p2
Ntp3
Rp4
(dp5
S'_fname'
p6
S'containsword(risk)'
p7
sS'_label'
p8
S'not m'
p9
sS'_decisions'
p10
(dp11
I00
g0
(g1
g2
Ntp12
Rp13
(dp14
g6
S'containsword(liable)'
p15
sg8
g9
sg10
(dp16
I00
g0
(g1
g2
Ntp17
Rp18
(dp19
g6
S'containsword(officers)'
p20
sg8
g9
sg10
(dp21
I00
g0
(g1
g2
Ntp22
Rp23
(dp24
g6
S'containsword(fitness)'
p25
sg8
g9
sg10
(dp26
I00
g0
(g1
g2
Ntp27
Rp28
(dp29
g6
S'containsword(industry-standard)'
p30
sg8
g9
sg10
(dp31
I00
g0
(g1
g2
Ntp32
Rp33
(dp34
g6
S'containsword(negligence)'
p35
sg8
g9
sg10
(dp36
I00
g0
(g1
g2
Ntp37
Rp38
(dp39
g6
S'containsword(linking)'
p40
sg8
g9
sg10
(dp41
I00
g0
(g1
g2
Ntp42
Rp43
(dp44
g6
S'containsword(plug-ins)'
p45
sg8
g9
sg10
(dp46
I00
g0
(g1
g2
Ntp47
Rp48
(dp49
g6
S'containsword(confidential)'
p50
sg8
g9
sg10
(dp51
I00
g0
(g1
g2
Ntp52
Rp53
(dp54
g6
S'containsword(failure)'
p55
sg8
g9
sg10
(dp56
I00
g0
(g1
g2
Ntp57
Rp58
(dp59
g6
S'containsword(representations)'
p60
sg8
g9
sg10
(dp61
I00
g0
(g1
g2
Ntp62
Rp63
(dp64
g6
Nsg8
S'not m'
p65
sg10
NsS'_default'
p66
NsbsI01
g0
(g1
g2
Ntp67
Rp68
(dp69
g6
Nsg8
S'm'
p70
sg10
Nsg66
Nsbssg66
NsbsI01
g0
(g1
g2
Ntp71
Rp72
(dp73
g6
S'containsword(such)'
p74
sg8
g70
sg10
(dp75
I00
g0
(g1
g2
Ntp76
Rp77
(dp78
g6
Nsg8
g70
sg10
Nsg66
NsbsI01
g0
(g1
g2
Ntp79
Rp80
(dp81
g6
Nsg8
S'not m'
p82
sg10
Nsg66
Nsbssg66
Nsbssg66
NsbsI01
g0
(g1
g2
Ntp83
Rp84
(dp85
g6
Nsg8
g70
sg10
Nsg66
Nsbssg66
NsbsI01
g0
(g1
g2
Ntp86
Rp87
(dp88
g6
Nsg8
g70
sg10
Nsg66
Nsbssg66
NsbsI01
g0
(g1
g2
Ntp89
Rp90
(dp91
g6
Nsg8
g70
sg10
Nsg66
Nsbssg66
NsbsI01
g0
(g1
g2
Ntp92
Rp93
(dp94
g6
Nsg8
g70
sg10
Nsg66
Nsbssg66
NsbsI01
g0
(g1
g2
Ntp95
Rp96
(dp97
g6
Nsg8
g70
sg10
Nsg66
Nsbssg66
NsbsI01
g0
(g1
g2
Ntp98
Rp99
(dp100
g6
Nsg8
g70
sg10
Nsg66
Nsbssg66
NsbsI01
g0
(g1
g2
Ntp101
Rp102
(dp103
g6
Nsg8
g70
sg10
Nsg66
Nsbssg66
NsbsI01
g0
(g1
g2
Ntp104
Rp105
(dp106
g6
S'containsword(make)'
p107
sg8
g70
sg10
(dp108
I00
g0
(g1
g2
Ntp109
Rp110
(dp111
g6
S'containsword(copyrights)'
p112
sg8
g70
sg10
(dp113
I00
g0
(g1
g2
Ntp114
Rp115
(dp116
g6
Nsg8
g70
sg10
Nsg66
NsbsI01
g0
(g1
g2
Ntp117
Rp118
(dp119
g6
Nsg8
S'not m'
p120
sg10
Nsg66
Nsbssg66
NsbsI01
g0
(g1
g2
Ntp121
Rp122
(dp123
g6
Nsg8
S'not m'
p124
sg10
Nsg66
Nsbssg66
Nsbssg66
NsbsI01
g0
(g1
g2
Ntp125
Rp126
(dp127
g6
S'containsword(stores)'
p128
sg8
g70
sg10
(dp129
I00
g0
(g1
g2
Ntp130
Rp131
(dp132
g6
Nsg8
g70
sg10
Nsg66
NsbsI01
g0
(g1
g2
Ntp133
Rp134
(dp135
g6
Nsg8
S'not m'
p136
sg10
Nsg66
Nsbssg66
Nsbssg66
Nsb.