ccopy_reg
_reconstructor
p0
(cnltk.classify.decisiontree
DecisionTreeClassifier
p1
c__builtin__
object
p2
Ntp3
Rp4
(dp5
S'_fname'
p6
S'containsword(instruct)'
p7
sS'_label'
p8
S'not v'
p9
sS'_decisions'
p10
(dp11
I00
g0
(g1
g2
Ntp12
Rp13
(dp14
g6
Nsg8
S'not v'
p15
sg10
NsS'_default'
p16
NsbsI01
g0
(g1
g2
Ntp17
Rp18
(dp19
g6
Nsg8
S'v'
p20
sg10
Nsg16
Nsbssg16
Nsb.