ccopy_reg
_reconstructor
p0
(cnltk.classify.decisiontree
DecisionTreeClassifier
p1
c__builtin__
object
p2
Ntp3
Rp4
(dp5
S'_fname'
p6
S'containsword(assets)'
p7
sS'_label'
p8
S'not p'
p9
sS'_decisions'
p10
(dp11
I00
g0
(g1
g2
Ntp12
Rp13
(dp14
g6
S'containsword(periodically)'
p15
sg8
g9
sg10
(dp16
I00
g0
(g1
g2
Ntp17
Rp18
(dp19
g6
S'containsword(prominent)'
p20
sg8
g9
sg10
(dp21
I00
g0
(g1
g2
Ntp22
Rp23
(dp24
g6
S'containsword(modifications)'
p25
sg8
g9
sg10
(dp26
I00
g0
(g1
g2
Ntp27
Rp28
(dp29
g6
S'containsword(becoming)'
p30
sg8
g9
sg10
(dp31
I00
g0
(g1
g2
Ntp32
Rp33
(dp34
g6
S'containsword(places)'
p35
sg8
g9
sg10
(dp36
I00
g0
(g1
g2
Ntp37
Rp38
(dp39
g6
S'containsword(successor)'
p40
sg8
g9
sg10
(dp41
I00
g0
(g1
g2
Ntp42
Rp43
(dp44
g6
S'containsword(amend)'
p45
sg8
g9
sg10
(dp46
I00
g0
(g1
g2
Ntp47
Rp48
(dp49
g6
S'containsword(familiar)'
p50
sg8
g9
sg10
(dp51
I00
g0
(g1
g2
Ntp52
Rp53
(dp54
g6
S'containsword(considers)'
p55
sg8
g9
sg10
(dp56
I00
g0
(g1
g2
Ntp57
Rp58
(dp59
g6
Nsg8
S'not p'
p60
sg10
NsS'_default'
p61
NsbsI01
g0
(g1
g2
Ntp62
Rp63
(dp64
g6
Nsg8
S'p'
p65
sg10
Nsg61
Nsbssg61
NsbsI01
g0
(g1
g2
Ntp66
Rp67
(dp68
g6
Nsg8
g65
sg10
Nsg61
Nsbssg61
NsbsI01
g0
(g1
g2
Ntp69
Rp70
(dp71
g6
Nsg8
g65
sg10
Nsg61
Nsbssg61
NsbsI01
g0
(g1
g2
Ntp72
Rp73
(dp74
g6
Nsg8
g65
sg10
Nsg61
Nsbssg61
NsbsI01
g0
(g1
g2
Ntp75
Rp76
(dp77
g6
S'containsword(is)'
p78
sg8
g65
sg10
(dp79
I00
g0
(g1
g2
Ntp80
Rp81
(dp82
g6
Nsg8
g65
sg10
Nsg61
NsbsI01
g0
(g1
g2
Ntp83
Rp84
(dp85
g6
Nsg8
S'not p'
p86
sg10
Nsg61
Nsbssg61
Nsbssg61
NsbsI01
g0
(g1
g2
Ntp87
Rp88
(dp89
g6
Nsg8
g65
sg10
Nsg61
Nsbssg61
NsbsI01
g0
(g1
g2
Ntp90
Rp91
(dp92
g6
S'containsword(searching)'
p93
sg8
g65
sg10
(dp94
I00
g0
(g1
g2
Ntp95
Rp96
(dp97
g6
Nsg8
g65
sg10
Nsg61
NsbsI01
g0
(g1
g2
Ntp98
Rp99
(dp100
g6
Nsg8
S'not p'
p101
sg10
Nsg61
Nsbssg61
Nsbssg61
NsbsI01
g0
(g1
g2
Ntp102
Rp103
(dp104
g6
Nsg8
g65
sg10
Nsg61
Nsbssg61
NsbsI01
g0
(g1
g2
Ntp105
Rp106
(dp107
g6
S'containsword(december)'
p108
sg8
g65
sg10
(dp109
I00
g0
(g1
g2
Ntp110
Rp111
(dp112
g6
Nsg8
g65
sg10
Nsg61
NsbsI01
g0
(g1
g2
Ntp113
Rp114
(dp115
g6
Nsg8
S'not p'
p116
sg10
Nsg61
Nsbssg61
Nsbssg61
NsbsI01
g0
(g1
g2
Ntp117
Rp118
(dp119
g6
S'containsword(behalf)'
p120
sg8
g65
sg10
(dp121
I00
g0
(g1
g2
Ntp122
Rp123
(dp124
g6
Nsg8
g65
sg10
Nsg61
NsbsI01
g0
(g1
g2
Ntp125
Rp126
(dp127
g6
Nsg8
S'not p'
p128
sg10
Nsg61
Nsbssg61
Nsbssg61
Nsb.