ccopy_reg
_reconstructor
p0
(cnltk.classify.decisiontree
DecisionTreeClassifier
p1
c__builtin__
object
p2
Ntp3
Rp4
(dp5
S'_fname'
p6
S'containsword(profile)'
p7
sS'_label'
p8
S'not i'
p9
sS'_decisions'
p10
(dp11
I00
g0
(g1
g2
Ntp12
Rp13
(dp14
g6
S'containsword(prizes)'
p15
sg8
g9
sg10
(dp16
I00
g0
(g1
g2
Ntp17
Rp18
(dp19
g6
S'containsword(series)'
p20
sg8
g9
sg10
(dp21
I00
g0
(g1
g2
Ntp22
Rp23
(dp24
g6
S'containsword(club)'
p25
sg8
g9
sg10
(dp26
I00
g0
(g1
g2
Ntp27
Rp28
(dp29
g6
S'containsword(recorded)'
p30
sg8
g9
sg10
(dp31
I00
g0
(g1
g2
Ntp32
Rp33
(dp34
g6
S'containsword(shipping)'
p35
sg8
g9
sg10
(dp36
I00
g0
(g1
g2
Ntp37
Rp38
(dp39
g6
S'containsword(won)'
p40
sg8
g9
sg10
(dp41
I00
g0
(g1
g2
Ntp42
Rp43
(dp44
g6
S'containsword(reported)'
p45
sg8
g9
sg10
(dp46
I00
g0
(g1
g2
Ntp47
Rp48
(dp49
g6
S'containsword(publishing)'
p50
sg8
g9
sg10
(dp51
I00
g0
(g1
g2
Ntp52
Rp53
(dp54
g6
S'containsword(user-generated)'
p55
sg8
g9
sg10
(dp56
I00
g0
(g1
g2
Ntp57
Rp58
(dp59
g6
S'containsword(nearby)'
p60
sg8
g9
sg10
(dp61
I00
g0
(g1
g2
Ntp62
Rp63
(dp64
g6
S'containsword(simple)'
p65
sg8
g9
sg10
(dp66
I00
g0
(g1
g2
Ntp67
Rp68
(dp69
g6
S'containsword(customization)'
p70
sg8
g9
sg10
(dp71
I00
g0
(g1
g2
Ntp72
Rp73
(dp74
g6
S'containsword(running)'
p75
sg8
g9
sg10
(dp76
I00
g0
(g1
g2
Ntp77
Rp78
(dp79
g6
S'containsword(passively)'
p80
sg8
g9
sg10
(dp81
I00
g0
(g1
g2
Ntp82
Rp83
(dp84
g6
S'containsword(team)'
p85
sg8
g9
sg10
(dp86
I00
g0
(g1
g2
Ntp87
Rp88
(dp89
g6
S'containsword(guaranteed)'
p90
sg8
g9
sg10
(dp91
I00
g0
(g1
g2
Ntp92
Rp93
(dp94
g6
S'containsword(medium)'
p95
sg8
g9
sg10
(dp96
I00
g0
(g1
g2
Ntp97
Rp98
(dp99
g6
S'containsword(signed)'
p100
sg8
g9
sg10
(dp101
I00
g0
(g1
g2
Ntp102
Rp103
(dp104
g6
S'containsword(goal)'
p105
sg8
g9
sg10
(dp106
I00
g0
(g1
g2
Ntp107
Rp108
(dp109
g6
S'containsword(knowledge)'
p110
sg8
g9
sg10
(dp111
I00
g0
(g1
g2
Ntp112
Rp113
(dp114
g6
S'containsword(verifiable)'
p115
sg8
g9
sg10
(dp116
I00
g0
(g1
g2
Ntp117
Rp118
(dp119
g6
S'containsword(clicked)'
p120
sg8
g9
sg10
(dp121
I00
g0
(g1
g2
Ntp122
Rp123
(dp124
g6
S'containsword(a.)'
p125
sg8
g9
sg10
(dp126
I00
g0
(g1
g2
Ntp127
Rp128
(dp129
g6
S'containsword(uk)'
p130
sg8
g9
sg10
(dp131
I00
g0
(g1
g2
Ntp132
Rp133
(dp134
g6
S'containsword(hosting)'
p135
sg8
g9
sg10
(dp136
I00
g0
(g1
g2
Ntp137
Rp138
(dp139
g6
S'containsword(supplement)'
p140
sg8
g9
sg10
(dp141
I00
g0
(g1
g2
Ntp142
Rp143
(dp144
g6
S'containsword(processed)'
p145
sg8
g9
sg10
(dp146
I00
g0
(g1
g2
Ntp147
Rp148
(dp149
g6
S'containsword(integrated)'
p150
sg8
g9
sg10
(dp151
I00
g0
(g1
g2
Ntp152
Rp153
(dp154
g6
S'containsword(demographics)'
p155
sg8
g9
sg10
(dp156
I00
g0
(g1
g2
Ntp157
Rp158
(dp159
g6
S'containsword(geographical)'
p160
sg8
g9
sg10
(dp161
I00
g0
(g1
g2
Ntp162
Rp163
(dp164
g6
S'containsword(winners)'
p165
sg8
g9
sg10
(dp166
I00
g0
(g1
g2
Ntp167
Rp168
(dp169
g6
Nsg8
S'not i'
p170
sg10
NsS'_default'
p171
NsbsI01
g0
(g1
g2
Ntp172
Rp173
(dp174
g6
Nsg8
S'i'
p175
sg10
Nsg171
Nsbssg171
NsbsI01
g0
(g1
g2
Ntp176
Rp177
(dp178
g6
Nsg8
g175
sg10
Nsg171
Nsbssg171
NsbsI01
g0
(g1
g2
Ntp179
Rp180
(dp181
g6
Nsg8
g175
sg10
Nsg171
Nsbssg171
NsbsI01
g0
(g1
g2
Ntp182
Rp183
(dp184
g6
Nsg8
g175
sg10
Nsg171
Nsbssg171
NsbsI01
g0
(g1
g2
Ntp185
Rp186
(dp187
g6
Nsg8
g175
sg10
Nsg171
Nsbssg171
NsbsI01
g0
(g1
g2
Ntp188
Rp189
(dp190
g6
Nsg8
g175
sg10
Nsg171
Nsbssg171
NsbsI01
g0
(g1
g2
Ntp191
Rp192
(dp193
g6
Nsg8
g175
sg10
Nsg171
Nsbssg171
NsbsI01
g0
(g1
g2
Ntp194
Rp195
(dp196
g6
Nsg8
g175
sg10
Nsg171
Nsbssg171
NsbsI01
g0
(g1
g2
Ntp197
Rp198
(dp199
g6
Nsg8
g175
sg10
Nsg171
Nsbssg171
NsbsI01
g0
(g1
g2
Ntp200
Rp201
(dp202
g6
Nsg8
g175
sg10
Nsg171
Nsbssg171
NsbsI01
g0
(g1
g2
Ntp203
Rp204
(dp205
g6
Nsg8
g175
sg10
Nsg171
Nsbssg171
NsbsI01
g0
(g1
g2
Ntp206
Rp207
(dp208
g6
Nsg8
g175
sg10
Nsg171
Nsbssg171
NsbsI01
g0
(g1
g2
Ntp209
Rp210
(dp211
g6
Nsg8
g175
sg10
Nsg171
Nsbssg171
NsbsI01
g0
(g1
g2
Ntp212
Rp213
(dp214
g6
Nsg8
g175
sg10
Nsg171
Nsbssg171
NsbsI01
g0
(g1
g2
Ntp215
Rp216
(dp217
g6
Nsg8
g175
sg10
Nsg171
Nsbssg171
NsbsI01
g0
(g1
g2
Ntp218
Rp219
(dp220
g6
Nsg8
g175
sg10
Nsg171
Nsbssg171
NsbsI01
g0
(g1
g2
Ntp221
Rp222
(dp223
g6
Nsg8
g175
sg10
Nsg171
Nsbssg171
NsbsI01
g0
(g1
g2
Ntp224
Rp225
(dp226
g6
Nsg8
g175
sg10
Nsg171
Nsbssg171
NsbsI01
g0
(g1
g2
Ntp227
Rp228
(dp229
g6
Nsg8
g175
sg10
Nsg171
Nsbssg171
NsbsI01
g0
(g1
g2
Ntp230
Rp231
(dp232
g6
Nsg8
g175
sg10
Nsg171
Nsbssg171
NsbsI01
g0
(g1
g2
Ntp233
Rp234
(dp235
g6
Nsg8
g175
sg10
Nsg171
Nsbssg171
NsbsI01
g0
(g1
g2
Ntp236
Rp237
(dp238
g6
Nsg8
g175
sg10
Nsg171
Nsbssg171
NsbsI01
g0
(g1
g2
Ntp239
Rp240
(dp241
g6
Nsg8
g175
sg10
Nsg171
Nsbssg171
NsbsI01
g0
(g1
g2
Ntp242
Rp243
(dp244
g6
Nsg8
g175
sg10
Nsg171
Nsbssg171
NsbsI01
g0
(g1
g2
Ntp245
Rp246
(dp247
g6
Nsg8
g175
sg10
Nsg171
Nsbssg171
NsbsI01
g0
(g1
g2
Ntp248
Rp249
(dp250
g6
Nsg8
g175
sg10
Nsg171
Nsbssg171
NsbsI01
g0
(g1
g2
Ntp251
Rp252
(dp253
g6
S'containsword(related)'
p254
sg8
g175
sg10
(dp255
I00
g0
(g1
g2
Ntp256
Rp257
(dp258
g6
Nsg8
g175
sg10
Nsg171
NsbsI01
g0
(g1
g2
Ntp259
Rp260
(dp261
g6
Nsg8
S'not i'
p262
sg10
Nsg171
Nsbssg171
Nsbssg171
NsbsI01
g0
(g1
g2
Ntp263
Rp264
(dp265
g6
Nsg8
g175
sg10
Nsg171
Nsbssg171
NsbsI01
g0
(g1
g2
Ntp266
Rp267
(dp268
g6
Nsg8
g175
sg10
Nsg171
Nsbssg171
NsbsI01
g0
(g1
g2
Ntp269
Rp270
(dp271
g6
Nsg8
g175
sg10
Nsg171
Nsbssg171
NsbsI01
g0
(g1
g2
Ntp272
Rp273
(dp274
g6
Nsg8
g175
sg10
Nsg171
Nsbssg171
NsbsI01
g0
(g1
g2
Ntp275
Rp276
(dp277
g6
S'containsword(flight)'
p278
sg8
S'not i'
p279
sg10
(dp280
I00
g0
(g1
g2
Ntp281
Rp282
(dp283
g6
S'containsword(connect)'
p284
sg8
g279
sg10
(dp285
I00
g0
(g1
g2
Ntp286
Rp287
(dp288
g6
Nsg8
g175
sg10
Nsg171
NsbsI01
g0
(g1
g2
Ntp289
Rp290
(dp291
g6
Nsg8
g279
sg10
Nsg171
Nsbssg171
NsbsI01
g0
(g1
g2
Ntp292
Rp293
(dp294
g6
Nsg8
S'not i'
p295
sg10
Nsg171
Nsbssg171
Nsbssg171
Nsb.