ccopy_reg
_reconstructor
p0
(cnltk.classify.decisiontree
DecisionTreeClassifier
p1
c__builtin__
object
p2
Ntp3
Rp4
(dp5
S'_fname'
p6
S'containsword(alphanumeric)'
p7
sS'_label'
p8
S'not a'
p9
sS'_decisions'
p10
(dp11
I00
g0
(g1
g2
Ntp12
Rp13
(dp14
g6
S'containsword(true)'
p15
sg8
g9
sg10
(dp16
I00
g0
(g1
g2
Ntp17
Rp18
(dp19
g6
S'containsword(often)'
p20
sg8
g9
sg10
(dp21
I00
g0
(g1
g2
Ntp22
Rp23
(dp24
g6
S'containsword(chain)'
p25
sg8
g9
sg10
(dp26
I00
g0
(g1
g2
Ntp27
Rp28
(dp29
g6
S'containsword(overall)'
p30
sg8
g9
sg10
(dp31
I00
g0
(g1
g2
Ntp32
Rp33
(dp34
g6
S'containsword(charges)'
p35
sg8
g9
sg10
(dp36
I00
g0
(g1
g2
Ntp37
Rp38
(dp39
g6
S'containsword(user-generated)'
p40
sg8
g9
sg10
(dp41
I00
g0
(g1
g2
Ntp42
Rp43
(dp44
g6
S'containsword(youre)'
p45
sg8
g9
sg10
(dp46
I00
g0
(g1
g2
Ntp47
Rp48
(dp49
g6
S'containsword(adobe)'
p50
sg8
g9
sg10
(dp51
I00
g0
(g1
g2
Ntp52
Rp53
(dp54
g6
S'containsword(competitions)'
p55
sg8
g9
sg10
(dp56
I00
g0
(g1
g2
Ntp57
Rp58
(dp59
g6
S'containsword(passively)'
p60
sg8
g9
sg10
(dp61
I00
g0
(g1
g2
Ntp62
Rp63
(dp64
g6
S'containsword(residence)'
p65
sg8
g9
sg10
(dp66
I00
g0
(g1
g2
Ntp67
Rp68
(dp69
g6
Nsg8
S'not a'
p70
sg10
NsS'_default'
p71
NsbsI01
g0
(g1
g2
Ntp72
Rp73
(dp74
g6
Nsg8
S'a'
p75
sg10
Nsg71
Nsbssg71
NsbsI01
g0
(g1
g2
Ntp76
Rp77
(dp78
g6
Nsg8
g75
sg10
Nsg71
Nsbssg71
NsbsI01
g0
(g1
g2
Ntp79
Rp80
(dp81
g6
Nsg8
g75
sg10
Nsg71
Nsbssg71
NsbsI01
g0
(g1
g2
Ntp82
Rp83
(dp84
g6
Nsg8
g75
sg10
Nsg71
Nsbssg71
NsbsI01
g0
(g1
g2
Ntp85
Rp86
(dp87
g6
Nsg8
g75
sg10
Nsg71
Nsbssg71
NsbsI01
g0
(g1
g2
Ntp88
Rp89
(dp90
g6
Nsg8
g75
sg10
Nsg71
Nsbssg71
NsbsI01
g0
(g1
g2
Ntp91
Rp92
(dp93
g6
Nsg8
g75
sg10
Nsg71
Nsbssg71
NsbsI01
g0
(g1
g2
Ntp94
Rp95
(dp96
g6
Nsg8
g75
sg10
Nsg71
Nsbssg71
NsbsI01
g0
(g1
g2
Ntp97
Rp98
(dp99
g6
Nsg8
g75
sg10
Nsg71
Nsbssg71
NsbsI01
g0
(g1
g2
Ntp100
Rp101
(dp102
g6
Nsg8
g75
sg10
Nsg71
Nsbssg71
NsbsI01
g0
(g1
g2
Ntp103
Rp104
(dp105
g6
Nsg8
g75
sg10
Nsg71
Nsbssg71
NsbsI01
g0
(g1
g2
Ntp106
Rp107
(dp108
g6
Nsg8
g75
sg10
Nsg71
Nsbssg71
Nsb.