ccopy_reg
_reconstructor
p0
(cnltk.classify.decisiontree
DecisionTreeClassifier
p1
c__builtin__
object
p2
Ntp3
Rp4
(dp5
S'_fname'
p6
S'containsword(parties)'
p7
sS'_label'
p8
S'not t'
p9
sS'_decisions'
p10
(dp11
I00
g0
(g1
g2
Ntp12
Rp13
(dp14
g6
S'containsword(beacons)'
p15
sg8
g9
sg10
(dp16
I00
g0
(g1
g2
Ntp17
Rp18
(dp19
g6
S'containsword(legislation)'
p20
sg8
g9
sg10
(dp21
I00
g0
(g1
g2
Ntp22
Rp23
(dp24
g6
S'containsword(personnel)'
p25
sg8
g9
sg10
(dp26
I00
g0
(g1
g2
Ntp27
Rp28
(dp29
g6
S'containsword(hosted)'
p30
sg8
g9
sg10
(dp31
I00
g0
(g1
g2
Ntp32
Rp33
(dp34
g6
S'containsword(organisations)'
p35
sg8
g9
sg10
(dp36
I00
g0
(g1
g2
Ntp37
Rp38
(dp39
g6
S'containsword(interesting)'
p40
sg8
g9
sg10
(dp41
I00
g0
(g1
g2
Ntp42
Rp43
(dp44
g6
S'containsword(whom)'
p45
sg8
g9
sg10
(dp46
I00
g0
(g1
g2
Ntp47
Rp48
(dp49
g6
S'containsword(trusted)'
p50
sg8
g9
sg10
(dp51
I00
g0
(g1
g2
Ntp52
Rp53
(dp54
g6
S'containsword(generate)'
p55
sg8
g9
sg10
(dp56
I00
g0
(g1
g2
Ntp57
Rp58
(dp59
g6
S'containsword(facilitating)'
p60
sg8
g9
sg10
(dp61
I00
g0
(g1
g2
Ntp62
Rp63
(dp64
g6
S'containsword(co-branded)'
p65
sg8
g9
sg10
(dp66
I00
g0
(g1
g2
Ntp67
Rp68
(dp69
g6
S'containsword(publishing)'
p70
sg8
g9
sg10
(dp71
I00
g0
(g1
g2
Ntp72
Rp73
(dp74
g6
S'containsword(car)'
p75
sg8
g9
sg10
(dp76
I00
g0
(g1
g2
Ntp77
Rp78
(dp79
g6
S'containsword(channels)'
p80
sg8
g9
sg10
(dp81
I00
g0
(g1
g2
Ntp82
Rp83
(dp84
g6
S'containsword(shipping)'
p85
sg8
g9
sg10
(dp86
I00
g0
(g1
g2
Ntp87
Rp88
(dp89
g6
S'containsword(approved)'
p90
sg8
g9
sg10
(dp91
I00
g0
(g1
g2
Ntp92
Rp93
(dp94
g6
S'containsword(won)'
p95
sg8
g9
sg10
(dp96
I00
g0
(g1
g2
Ntp97
Rp98
(dp99
g6
S'containsword(engage)'
p100
sg8
g9
sg10
(dp101
I00
g0
(g1
g2
Ntp102
Rp103
(dp104
g6
S'containsword(successor)'
p105
sg8
g9
sg10
(dp106
I00
g0
(g1
g2
Ntp107
Rp108
(dp109
g6
S'containsword(issues)'
p110
sg8
g9
sg10
(dp111
I00
g0
(g1
g2
Ntp112
Rp113
(dp114
g6
S'containsword(comes)'
p115
sg8
g9
sg10
(dp116
I00
g0
(g1
g2
Ntp117
Rp118
(dp119
g6
S'containsword(clicked)'
p120
sg8
g9
sg10
(dp121
I00
g0
(g1
g2
Ntp122
Rp123
(dp124
g6
S'containsword(buyers)'
p125
sg8
g9
sg10
(dp126
I00
g0
(g1
g2
Ntp127
Rp128
(dp129
g6
S'containsword(contracted)'
p130
sg8
g9
sg10
(dp131
I00
g0
(g1
g2
Ntp132
Rp133
(dp134
g6
S'containsword(theft)'
p135
sg8
g9
sg10
(dp136
I00
g0
(g1
g2
Ntp137
Rp138
(dp139
g6
Nsg8
S'not t'
p140
sg10
NsS'_default'
p141
NsbsI01
g0
(g1
g2
Ntp142
Rp143
(dp144
g6
Nsg8
S't'
p145
sg10
Nsg141
Nsbssg141
NsbsI01
g0
(g1
g2
Ntp146
Rp147
(dp148
g6
Nsg8
g145
sg10
Nsg141
Nsbssg141
NsbsI01
g0
(g1
g2
Ntp149
Rp150
(dp151
g6
Nsg8
g145
sg10
Nsg141
Nsbssg141
NsbsI01
g0
(g1
g2
Ntp152
Rp153
(dp154
g6
Nsg8
g145
sg10
Nsg141
Nsbssg141
NsbsI01
g0
(g1
g2
Ntp155
Rp156
(dp157
g6
Nsg8
g145
sg10
Nsg141
Nsbssg141
NsbsI01
g0
(g1
g2
Ntp158
Rp159
(dp160
g6
Nsg8
g145
sg10
Nsg141
Nsbssg141
NsbsI01
g0
(g1
g2
Ntp161
Rp162
(dp163
g6
Nsg8
g145
sg10
Nsg141
Nsbssg141
NsbsI01
g0
(g1
g2
Ntp164
Rp165
(dp166
g6
Nsg8
g145
sg10
Nsg141
Nsbssg141
NsbsI01
g0
(g1
g2
Ntp167
Rp168
(dp169
g6
Nsg8
g145
sg10
Nsg141
Nsbssg141
NsbsI01
g0
(g1
g2
Ntp170
Rp171
(dp172
g6
Nsg8
g145
sg10
Nsg141
Nsbssg141
NsbsI01
g0
(g1
g2
Ntp173
Rp174
(dp175
g6
Nsg8
g145
sg10
Nsg141
Nsbssg141
NsbsI01
g0
(g1
g2
Ntp176
Rp177
(dp178
g6
Nsg8
g145
sg10
Nsg141
Nsbssg141
NsbsI01
g0
(g1
g2
Ntp179
Rp180
(dp181
g6
Nsg8
g145
sg10
Nsg141
Nsbssg141
NsbsI01
g0
(g1
g2
Ntp182
Rp183
(dp184
g6
Nsg8
g145
sg10
Nsg141
Nsbssg141
NsbsI01
g0
(g1
g2
Ntp185
Rp186
(dp187
g6
S'containsword(such)'
p188
sg8
g145
sg10
(dp189
I00
g0
(g1
g2
Ntp190
Rp191
(dp192
g6
Nsg8
S'not t'
p193
sg10
Nsg141
NsbsI01
g0
(g1
g2
Ntp194
Rp195
(dp196
g6
Nsg8
g145
sg10
Nsg141
Nsbssg141
Nsbssg141
NsbsI01
g0
(g1
g2
Ntp197
Rp198
(dp199
g6
Nsg8
g145
sg10
Nsg141
Nsbssg141
NsbsI01
g0
(g1
g2
Ntp200
Rp201
(dp202
g6
Nsg8
g145
sg10
Nsg141
Nsbssg141
NsbsI01
g0
(g1
g2
Ntp203
Rp204
(dp205
g6
Nsg8
g145
sg10
Nsg141
Nsbssg141
NsbsI01
g0
(g1
g2
Ntp206
Rp207
(dp208
g6
Nsg8
g145
sg10
Nsg141
Nsbssg141
NsbsI01
g0
(g1
g2
Ntp209
Rp210
(dp211
g6
Nsg8
g145
sg10
Nsg141
Nsbssg141
NsbsI01
g0
(g1
g2
Ntp212
Rp213
(dp214
g6
Nsg8
g145
sg10
Nsg141
Nsbssg141
NsbsI01
g0
(g1
g2
Ntp215
Rp216
(dp217
g6
Nsg8
g145
sg10
Nsg141
Nsbssg141
NsbsI01
g0
(g1
g2
Ntp218
Rp219
(dp220
g6
Nsg8
g145
sg10
Nsg141
Nsbssg141
NsbsI01
g0
(g1
g2
Ntp221
Rp222
(dp223
g6
Nsg8
g145
sg10
Nsg141
Nsbssg141
NsbsI01
g0
(g1
g2
Ntp224
Rp225
(dp226
g6
S'containsword(this)'
p227
sg8
g145
sg10
(dp228
I00
g0
(g1
g2
Ntp229
Rp230
(dp231
g6
S'containsword(such)'
p232
sg8
S'not t'
p233
sg10
(dp234
I00
g0
(g1
g2
Ntp235
Rp236
(dp237
g6
Nsg8
S'not t'
p238
sg10
Nsg141
NsbsI01
g0
(g1
g2
Ntp239
Rp240
(dp241
g6
Nsg8
g145
sg10
Nsg141
Nsbssg141
NsbsI01
g0
(g1
g2
Ntp242
Rp243
(dp244
g6
Nsg8
g145
sg10
Nsg141
Nsbssg141
Nsbssg141
NsbsI01
g0
(g1
g2
Ntp245
Rp246
(dp247
g6
S'containsword(do)'
p248
sg8
g145
sg10
(dp249
I00
g0
(g1
g2
Ntp250
Rp251
(dp252
g6
S'containsword(third)'
p253
sg8
g145
sg10
(dp254
I00
g0
(g1
g2
Ntp255
Rp256
(dp257
g6
Nsg8
S'not t'
p258
sg10
Nsg141
NsbsI01
g0
(g1
g2
Ntp259
Rp260
(dp261
g6
S'containsword(e-mail)'
p262
sg8
g145
sg10
(dp263
I00
g0
(g1
g2
Ntp264
Rp265
(dp266
g6
S'containsword(except)'
p267
sg8
g145
sg10
(dp268
I00
g0
(g1
g2
Ntp269
Rp270
(dp271
g6
Nsg8
g145
sg10
Nsg141
NsbsI01
g0
(g1
g2
Ntp272
Rp273
(dp274
g6
Nsg8
S'not t'
p275
sg10
Nsg141
Nsbssg141
NsbsI01
g0
(g1
g2
Ntp276
Rp277
(dp278
g6
Nsg8
S'not t'
p279
sg10
Nsg141
Nsbssg141
Nsbssg141
NsbsI01
g0
(g1
g2
Ntp280
Rp281
(dp282
g6
S'containsword(addition)'
p283
sg8
S'not t'
p284
sg10
(dp285
I00
g0
(g1
g2
Ntp286
Rp287
(dp288
g6
S'containsword(rights)'
p289
sg8
g284
sg10
(dp290
I00
g0
(g1
g2
Ntp291
Rp292
(dp293
g6
S'containsword(details)'
p294
sg8
g284
sg10
(dp295
I00
g0
(g1
g2
Ntp296
Rp297
(dp298
g6
S'containsword(childrens)'
p299
sg8
g284
sg10
(dp300
I00
g0
(g1
g2
Ntp301
Rp302
(dp303
g6
Nsg8
S'not t'
p304
sg10
Nsg141
NsbsI01
g0
(g1
g2
Ntp305
Rp306
(dp307
g6
Nsg8
g145
sg10
Nsg141
Nsbssg141
NsbsI01
g0
(g1
g2
Ntp308
Rp309
(dp310
g6
Nsg8
g145
sg10
Nsg141
Nsbssg141
NsbsI01
g0
(g1
g2
Ntp311
Rp312
(dp313
g6
Nsg8
g145
sg10
Nsg141
Nsbssg141
NsbsI01
g0
(g1
g2
Ntp314
Rp315
(dp316
g6
Nsg8
g145
sg10
Nsg141
Nsbssg141
Nsbssg141
Nsbssg141
Nsb.