ccopy_reg
_reconstructor
p0
(cnltk.classify.decisiontree
DecisionTreeClassifier
p1
c__builtin__
object
p2
Ntp3
Rp4
(dp5
S'_fname'
p6
S'containsword(collectively)'
p7
sS'_label'
p8
S'not d'
p9
sS'_decisions'
p10
(dp11
I00
g0
(g1
g2
Ntp12
Rp13
(dp14
g6
S'containsword(brands)'
p15
sg8
g9
sg10
(dp16
I00
g0
(g1
g2
Ntp17
Rp18
(dp19
g6
S'containsword(mean)'
p20
sg8
g9
sg10
(dp21
I00
g0
(g1
g2
Ntp22
Rp23
(dp24
g6
S'containsword(changed)'
p25
sg8
g9
sg10
(dp26
I00
g0
(g1
g2
Ntp27
Rp28
(dp29
g6
S'containsword(adequate)'
p30
sg8
g9
sg10
(dp31
I00
g0
(g1
g2
Ntp32
Rp33
(dp34
g6
S'containsword(referred)'
p35
sg8
g9
sg10
(dp36
I00
g0
(g1
g2
Ntp37
Rp38
(dp39
g6
S'containsword(entirety)'
p40
sg8
g9
sg10
(dp41
I00
g0
(g1
g2
Ntp42
Rp43
(dp44
g6
S'containsword(holder)'
p45
sg8
g9
sg10
(dp46
I00
g0
(g1
g2
Ntp47
Rp48
(dp49
g6
S'containsword(travelocity)'
p50
sg8
g9
sg10
(dp51
I00
g0
(g1
g2
Ntp52
Rp53
(dp54
g6
Nsg8
S'not d'
p55
sg10
NsS'_default'
p56
NsbsI01
g0
(g1
g2
Ntp57
Rp58
(dp59
g6
Nsg8
S'd'
p60
sg10
Nsg56
Nsbssg56
NsbsI01
g0
(g1
g2
Ntp61
Rp62
(dp63
g6
Nsg8
g60
sg10
Nsg56
Nsbssg56
NsbsI01
g0
(g1
g2
Ntp64
Rp65
(dp66
g6
S'containsword(proceedings)'
p67
sg8
S'not d'
p68
sg10
(dp69
I00
g0
(g1
g2
Ntp70
Rp71
(dp72
g6
Nsg8
g60
sg10
Nsg56
NsbsI01
g0
(g1
g2
Ntp73
Rp74
(dp75
g6
Nsg8
g68
sg10
Nsg56
Nsbssg56
Nsbssg56
NsbsI01
g0
(g1
g2
Ntp76
Rp77
(dp78
g6
Nsg8
g60
sg10
Nsg56
Nsbssg56
NsbsI01
g0
(g1
g2
Ntp79
Rp80
(dp81
g6
Nsg8
g60
sg10
Nsg56
Nsbssg56
NsbsI01
g0
(g1
g2
Ntp82
Rp83
(dp84
g6
Nsg8
g60
sg10
Nsg56
Nsbssg56
NsbsI01
g0
(g1
g2
Ntp85
Rp86
(dp87
g6
S'containsword(receive)'
p88
sg8
S'not d'
p89
sg10
(dp90
I00
g0
(g1
g2
Ntp91
Rp92
(dp93
g6
Nsg8
g60
sg10
Nsg56
NsbsI01
g0
(g1
g2
Ntp94
Rp95
(dp96
g6
Nsg8
g89
sg10
Nsg56
Nsbssg56
Nsbssg56
NsbsI01
g0
(g1
g2
Ntp97
Rp98
(dp99
g6
Nsg8
g60
sg10
Nsg56
Nsbssg56
NsbsI01
g0
(g1
g2
Ntp100
Rp101
(dp102
g6
S'containsword(but)'
p103
sg8
g60
sg10
(dp104
I00
g0
(g1
g2
Ntp105
Rp106
(dp107
g6
S'containsword(companies)'
p108
sg8
g60
sg10
(dp109
I00
g0
(g1
g2
Ntp110
Rp111
(dp112
g6
Nsg8
g60
sg10
Nsg56
NsbsI01
g0
(g1
g2
Ntp113
Rp114
(dp115
g6
Nsg8
S'not d'
p116
sg10
Nsg56
Nsbssg56
NsbsI01
g0
(g1
g2
Ntp117
Rp118
(dp119
g6
Nsg8
S'not d'
p120
sg10
Nsg56
Nsbssg56
Nsbssg56
Nsb.